target datalayout = "e-m:e-p270:32:32-p271:32:32-p272:64:64-i64:64-i128:128-f80:128-n8:16:32:64-S128"
target triple = "x86_64-pc-linux-gnu"

%"class.igl::opengl::ViewerCore" = type { i32, [12 x i8], %"class.Eigen::Matrix.3", %"class.Eigen::Matrix.12", i8, i8, i32, i32, i32, i32, i32, float, i32, [4 x i8], %"class.Eigen::Quaternion", float, float, i8, %"class.Eigen::Matrix.12", %"class.Eigen::Matrix.12", %"class.Eigen::Matrix.12", %"class.Eigen::Matrix.12", %"class.Eigen::Matrix.12", float, float, float, i8, i8, double, float, [12 x i8], %"class.Eigen::Matrix.3", %"class.Eigen::Matrix.22", %"class.Eigen::Matrix.22", %"class.Eigen::Matrix.22", %"class.Eigen::Matrix.22", %"class.Eigen::Matrix.22" }
%"class.Eigen::Quaternion" = type { %"class.Eigen::Matrix.3" }
%"class.Eigen::Matrix.12" = type { %"class.Eigen::PlainObjectBase.13" }
%"class.Eigen::PlainObjectBase.13" = type { %"class.Eigen::DenseStorage.20" }
%"class.Eigen::DenseStorage.20" = type { %"struct.Eigen::internal::plain_array.21" }
%"struct.Eigen::internal::plain_array.21" = type { [3 x float] }
%"class.Eigen::Matrix.3" = type { %"class.Eigen::PlainObjectBase.4" }
%"class.Eigen::PlainObjectBase.4" = type { %"class.Eigen::DenseStorage.11" }
%"class.Eigen::DenseStorage.11" = type { %"struct.Eigen::internal::plain_array" }
%"struct.Eigen::internal::plain_array" = type { [4 x float] }
%"class.Eigen::Matrix.22" = type { %"class.Eigen::PlainObjectBase.23" }
%"class.Eigen::PlainObjectBase.23" = type { %"class.Eigen::DenseStorage.30" }
%"class.Eigen::DenseStorage.30" = type { %"struct.Eigen::internal::plain_array.31" }
%"struct.Eigen::internal::plain_array.31" = type { [16 x float] }

@glad_glBindTexture = external global ptr, align 8
@glad_glBindFramebuffer = external global ptr, align 8
@glad_glBindRenderbuffer = external global ptr, align 8
@glad_glGenFramebuffers = external global ptr, align 8
@glad_glGenTextures = external global ptr, align 8
@glad_glFramebufferTexture2D = external global ptr, align 8
@glad_glGenRenderbuffers = external global ptr, align 8
@glad_glFramebufferRenderbuffer = external global ptr, align 8
@glad_glTexImage2D = external global ptr, align 8
@glad_glTexParameteri = external global ptr, align 8
@glad_glDeleteTextures = external global ptr, align 8
@glad_glTexParameterfv = external global ptr, align 8
@glad_glRenderbufferStorage = external global ptr, align 8
@glad_glCheckFramebufferStatus = external global ptr, align 8
@.str.24 = private unnamed_addr constant [56 x i8] c"[ViewerCore] Error: We failed to set up a good FBO: %d\0A\00", align 1

; Function Attrs: mustprogress nounwind uwtable
define linkonce_odr dso_local void @_ZN5Eigen8internal28check_static_allocation_sizeIfLi4EEEvv() #1 comdat {
  ret void
}

; Function Attrs: mustprogress uwtable
define linkonce_odr dso_local void @_ZN5Eigen8internal11plain_arrayIfLi4ELi0ELi16EEC2Ev(ptr noundef nonnull align 16 dereferenceable(16) %0) unnamed_addr #3 comdat align 2 {
  %2 = alloca ptr, align 8
  store ptr %0, ptr %2, align 8, !tbaa !1560
  call void @_ZN5Eigen8internal28check_static_allocation_sizeIfLi4EEEvv()
  ret void
}

; Function Attrs: mustprogress nounwind uwtable
define linkonce_odr dso_local void @_ZN5Eigen9DenseBaseINS_6MatrixIfLi4ELi1ELi0ELi4ELi1EEEEC2Ev(ptr noundef nonnull align 1 dereferenceable(1) %0) unnamed_addr #1 comdat align 2 {
  %2 = alloca ptr, align 8
  store ptr %0, ptr %2, align 8, !tbaa !222
  ret void
}

; Function Attrs: mustprogress uwtable
define linkonce_odr dso_local void @_ZN5Eigen12DenseStorageIfLi4ELi4ELi1ELi0EEC2Ev(ptr noundef nonnull align 16 dereferenceable(16) %0) unnamed_addr #3 comdat align 2 {
  %2 = alloca ptr, align 8
  store ptr %0, ptr %2, align 8, !tbaa !792
  %3 = load ptr, ptr %2, align 8
  %4 = getelementptr inbounds nuw %"class.Eigen::DenseStorage.11", ptr %3, i32 0, i32 0
  call void @_ZN5Eigen8internal11plain_arrayIfLi4ELi0ELi16EEC2Ev(ptr noundef nonnull align 16 dereferenceable(16) %4)
  ret void
}

; Function Attrs: mustprogress uwtable
define linkonce_odr dso_local void @_ZN5Eigen10MatrixBaseINS_6MatrixIfLi4ELi1ELi0ELi4ELi1EEEEC2Ev(ptr noundef nonnull align 1 dereferenceable(1) %0) unnamed_addr #3 comdat align 2 {
  %2 = alloca ptr, align 8
  store ptr %0, ptr %2, align 8, !tbaa !1532
  %3 = load ptr, ptr %2, align 8
  call void @_ZN5Eigen9DenseBaseINS_6MatrixIfLi4ELi1ELi0ELi4ELi1EEEEC2Ev(ptr noundef nonnull align 1 dereferenceable(1) %3)
  ret void
}

; Function Attrs: mustprogress nounwind uwtable
define linkonce_odr dso_local noundef ptr @_ZN5Eigen12DenseStorageIfLi4ELi4ELi1ELi0EE4dataEv(ptr noundef nonnull align 16 dereferenceable(16) %0) #1 comdat align 2 {
  %2 = alloca ptr, align 8
  store ptr %0, ptr %2, align 8, !tbaa !792
  %3 = load ptr, ptr %2, align 8
  %4 = getelementptr inbounds nuw %"class.Eigen::DenseStorage.11", ptr %3, i32 0, i32 0
  %5 = getelementptr inbounds nuw %"struct.Eigen::internal::plain_array", ptr %4, i32 0, i32 0
  %6 = getelementptr inbounds [4 x float], ptr %5, i64 0, i64 0
  ret ptr %6
}

; Function Attrs: inlinehint mustprogress nounwind uwtable
define linkonce_odr dso_local void @_ZN5Eigen15PlainObjectBaseINS_6MatrixIfLi4ELi1ELi0ELi4ELi1EEEE22_check_template_paramsEv() #4 comdat align 2 {
  ret void
}

; Function Attrs: inlinehint mustprogress uwtable
define linkonce_odr dso_local void @_ZN5Eigen15PlainObjectBaseINS_6MatrixIfLi4ELi1ELi0ELi4ELi1EEEEC2Ev(ptr noundef nonnull align 16 dereferenceable(16) %0) unnamed_addr #5 comdat align 2 {
  %2 = alloca ptr, align 8
  store ptr %0, ptr %2, align 8, !tbaa !244
  %3 = load ptr, ptr %2, align 8
  call void @_ZN5Eigen10MatrixBaseINS_6MatrixIfLi4ELi1ELi0ELi4ELi1EEEEC2Ev(ptr noundef nonnull align 1 dereferenceable(1) %3)
  %4 = getelementptr inbounds nuw %"class.Eigen::PlainObjectBase.4", ptr %3, i32 0, i32 0
  call void @_ZN5Eigen12DenseStorageIfLi4ELi4ELi1ELi0EEC2Ev(ptr noundef nonnull align 16 dereferenceable(16) %4)
  ret void
}

; Function Attrs: inlinehint mustprogress nounwind uwtable
define linkonce_odr dso_local noundef ptr @_ZN5Eigen15PlainObjectBaseINS_6MatrixIfLi4ELi1ELi0ELi4ELi1EEEE4dataEv(ptr noundef nonnull align 16 dereferenceable(16) %0) #4 comdat align 2 {
  %2 = alloca ptr, align 8
  store ptr %0, ptr %2, align 8, !tbaa !244
  %3 = load ptr, ptr %2, align 8
  %4 = getelementptr inbounds nuw %"class.Eigen::PlainObjectBase.4", ptr %3, i32 0, i32 0
  %5 = call noundef ptr @_ZN5Eigen12DenseStorageIfLi4ELi4ELi1ELi0EE4dataEv(ptr noundef nonnull align 16 dereferenceable(16) %4)
  ret ptr %5
}

; Function Attrs: inlinehint mustprogress uwtable
define linkonce_odr dso_local void @_ZN5Eigen6MatrixIfLi4ELi1ELi0ELi4ELi1EEC2ERKfS3_S3_S3_(ptr noundef nonnull align 16 dereferenceable(16) %0, ptr noundef nonnull align 4 dereferenceable(4) %1, ptr noundef nonnull align 4 dereferenceable(4) %2, ptr noundef nonnull align 4 dereferenceable(4) %3, ptr noundef nonnull align 4 dereferenceable(4) %4) unnamed_addr #5 comdat align 2 {
  %6 = alloca ptr, align 8
  %7 = alloca ptr, align 8
  %8 = alloca ptr, align 8
  %9 = alloca ptr, align 8
  %10 = alloca ptr, align 8
  store ptr %0, ptr %6, align 8, !tbaa !220
  store ptr %1, ptr %7, align 8, !tbaa !43
  store ptr %2, ptr %8, align 8, !tbaa !43
  store ptr %3, ptr %9, align 8, !tbaa !43
  store ptr %4, ptr %10, align 8, !tbaa !43
  %11 = load ptr, ptr %6, align 8
  call void @_ZN5Eigen15PlainObjectBaseINS_6MatrixIfLi4ELi1ELi0ELi4ELi1EEEEC2Ev(ptr noundef nonnull align 16 dereferenceable(16) %11)
  call void @_ZN5Eigen15PlainObjectBaseINS_6MatrixIfLi4ELi1ELi0ELi4ELi1EEEE22_check_template_paramsEv()
  %12 = load ptr, ptr %7, align 8, !tbaa !43
  %13 = load float, ptr %12, align 4, !tbaa !62
  %14 = getelementptr inbounds nuw %"class.Eigen::PlainObjectBase.4", ptr %11, i32 0, i32 0
  %15 = call noundef ptr @_ZN5Eigen12DenseStorageIfLi4ELi4ELi1ELi0EE4dataEv(ptr noundef nonnull align 16 dereferenceable(16) %14)
  %16 = getelementptr inbounds float, ptr %15, i64 0
  store float %13, ptr %16, align 4, !tbaa !62
  %17 = load ptr, ptr %8, align 8, !tbaa !43
  %18 = load float, ptr %17, align 4, !tbaa !62
  %19 = getelementptr inbounds nuw %"class.Eigen::PlainObjectBase.4", ptr %11, i32 0, i32 0
  %20 = call noundef ptr @_ZN5Eigen12DenseStorageIfLi4ELi4ELi1ELi0EE4dataEv(ptr noundef nonnull align 16 dereferenceable(16) %19)
  %21 = getelementptr inbounds float, ptr %20, i64 1
  store float %18, ptr %21, align 4, !tbaa !62
  %22 = load ptr, ptr %9, align 8, !tbaa !43
  %23 = load float, ptr %22, align 4, !tbaa !62
  %24 = getelementptr inbounds nuw %"class.Eigen::PlainObjectBase.4", ptr %11, i32 0, i32 0
  %25 = call noundef ptr @_ZN5Eigen12DenseStorageIfLi4ELi4ELi1ELi0EE4dataEv(ptr noundef nonnull align 16 dereferenceable(16) %24)
  %26 = getelementptr inbounds float, ptr %25, i64 2
  store float %23, ptr %26, align 4, !tbaa !62
  %27 = load ptr, ptr %10, align 8, !tbaa !43
  %28 = load float, ptr %27, align 4, !tbaa !62
  %29 = getelementptr inbounds nuw %"class.Eigen::PlainObjectBase.4", ptr %11, i32 0, i32 0
  %30 = call noundef ptr @_ZN5Eigen12DenseStorageIfLi4ELi4ELi1ELi0EE4dataEv(ptr noundef nonnull align 16 dereferenceable(16) %29)
  %31 = getelementptr inbounds float, ptr %30, i64 3
  store float %28, ptr %31, align 4, !tbaa !62
  ret void
}

; Function Attrs: mustprogress uwtable
define dso_local void @_ZN3igl6opengl10ViewerCore23generate_shadow_buffersEv(ptr noundef nonnull align 16 dereferenceable(544) %0) #3 align 2 {
  %2 = alloca ptr, align 8
  %3 = alloca %"class.Eigen::Matrix.3", align 16
  %4 = alloca float, align 4
  %5 = alloca float, align 4
  %6 = alloca float, align 4
  %7 = alloca float, align 4
  %8 = alloca i32, align 4
  store ptr %0, ptr %2, align 8, !tbaa !15
  %9 = load ptr, ptr %2, align 8
  %10 = load ptr, ptr @glad_glDeleteTextures, align 8, !tbaa !89
  %11 = getelementptr inbounds nuw %"class.igl::opengl::ViewerCore", ptr %9, i32 0, i32 8
  call void %10(i32 noundef 1, ptr noundef %11)
  %12 = load ptr, ptr @glad_glGenTextures, align 8, !tbaa !89
  %13 = getelementptr inbounds nuw %"class.igl::opengl::ViewerCore", ptr %9, i32 0, i32 8
  call void %12(i32 noundef 1, ptr noundef %13)
  %14 = load ptr, ptr @glad_glBindTexture, align 8, !tbaa !89
  %15 = getelementptr inbounds nuw %"class.igl::opengl::ViewerCore", ptr %9, i32 0, i32 8
  %16 = load i32, ptr %15, align 8, !tbaa !143
  call void %14(i32 noundef 3553, i32 noundef %16)
  %17 = load ptr, ptr @glad_glTexImage2D, align 8, !tbaa !89
  %18 = getelementptr inbounds nuw %"class.igl::opengl::ViewerCore", ptr %9, i32 0, i32 6
  %19 = load i32, ptr %18, align 16, !tbaa !200
  %20 = getelementptr inbounds nuw %"class.igl::opengl::ViewerCore", ptr %9, i32 0, i32 7
  %21 = load i32, ptr %20, align 4, !tbaa !201
  call void %17(i32 noundef 3553, i32 noundef 0, i32 noundef 6402, i32 noundef %19, i32 noundef %21, i32 noundef 0, i32 noundef 6402, i32 noundef 5126, ptr noundef null)
  %22 = load ptr, ptr @glad_glTexParameteri, align 8, !tbaa !89
  call void %22(i32 noundef 3553, i32 noundef 10241, i32 noundef 9728)
  %23 = load ptr, ptr @glad_glTexParameteri, align 8, !tbaa !89
  call void %23(i32 noundef 3553, i32 noundef 10240, i32 noundef 9728)
  %24 = load ptr, ptr @glad_glTexParameteri, align 8, !tbaa !89
  call void %24(i32 noundef 3553, i32 noundef 10242, i32 noundef 33069)
  %25 = load ptr, ptr @glad_glTexParameteri, align 8, !tbaa !89
  call void %25(i32 noundef 3553, i32 noundef 10243, i32 noundef 33069)
  %26 = load ptr, ptr @glad_glTexParameterfv, align 8, !tbaa !89
  call void @llvm.lifetime.start.p0(i64 16, ptr %3) #20
  call void @llvm.lifetime.start.p0(i64 4, ptr %4) #20
  store float 1.000000e+00, ptr %4, align 4, !tbaa !62
  call void @llvm.lifetime.start.p0(i64 4, ptr %5) #20
  store float 1.000000e+00, ptr %5, align 4, !tbaa !62
  call void @llvm.lifetime.start.p0(i64 4, ptr %6) #20
  store float 1.000000e+00, ptr %6, align 4, !tbaa !62
  call void @llvm.lifetime.start.p0(i64 4, ptr %7) #20
  store float 1.000000e+00, ptr %7, align 4, !tbaa !62
  call void @_ZN5Eigen6MatrixIfLi4ELi1ELi0ELi4ELi1EEC2ERKfS3_S3_S3_(ptr noundef nonnull align 16 dereferenceable(16) %3, ptr noundef nonnull align 4 dereferenceable(4) %4, ptr noundef nonnull align 4 dereferenceable(4) %5, ptr noundef nonnull align 4 dereferenceable(4) %6, ptr noundef nonnull align 4 dereferenceable(4) %7)
  %27 = call noundef ptr @_ZN5Eigen15PlainObjectBaseINS_6MatrixIfLi4ELi1ELi0ELi4ELi1EEEE4dataEv(ptr noundef nonnull align 16 dereferenceable(16) %3)
  call void %26(i32 noundef 3553, i32 noundef 4100, ptr noundef %27)
  call void @llvm.lifetime.end.p0(i64 4, ptr %7) #20
  call void @llvm.lifetime.end.p0(i64 4, ptr %6) #20
  call void @llvm.lifetime.end.p0(i64 4, ptr %5) #20
  call void @llvm.lifetime.end.p0(i64 4, ptr %4) #20
  call void @llvm.lifetime.end.p0(i64 16, ptr %3) #20
  %28 = load ptr, ptr @glad_glBindTexture, align 8, !tbaa !89
  call void %28(i32 noundef 3553, i32 noundef 0)
  %29 = load ptr, ptr @glad_glGenFramebuffers, align 8, !tbaa !89
  %30 = getelementptr inbounds nuw %"class.igl::opengl::ViewerCore", ptr %9, i32 0, i32 9
  call void %29(i32 noundef 1, ptr noundef %30)
  %31 = load ptr, ptr @glad_glBindFramebuffer, align 8, !tbaa !89
  %32 = getelementptr inbounds nuw %"class.igl::opengl::ViewerCore", ptr %9, i32 0, i32 9
  %33 = load i32, ptr %32, align 4, !tbaa !198
  call void %31(i32 noundef 36160, i32 noundef %33)
  %34 = load ptr, ptr @glad_glFramebufferTexture2D, align 8, !tbaa !89
  %35 = getelementptr inbounds nuw %"class.igl::opengl::ViewerCore", ptr %9, i32 0, i32 8
  %36 = load i32, ptr %35, align 8, !tbaa !143
  call void %34(i32 noundef 36160, i32 noundef 36096, i32 noundef 3553, i32 noundef %36, i32 noundef 0)
  %37 = load ptr, ptr @glad_glGenRenderbuffers, align 8, !tbaa !89
  %38 = getelementptr inbounds nuw %"class.igl::opengl::ViewerCore", ptr %9, i32 0, i32 10
  call void %37(i32 noundef 1, ptr noundef %38)
  %39 = load ptr, ptr @glad_glBindRenderbuffer, align 8, !tbaa !89
  %40 = getelementptr inbounds nuw %"class.igl::opengl::ViewerCore", ptr %9, i32 0, i32 10
  %41 = load i32, ptr %40, align 16, !tbaa !199
  call void %39(i32 noundef 36161, i32 noundef %41)
  %42 = load ptr, ptr @glad_glRenderbufferStorage, align 8, !tbaa !89
  %43 = getelementptr inbounds nuw %"class.igl::opengl::ViewerCore", ptr %9, i32 0, i32 6
  %44 = load i32, ptr %43, align 16, !tbaa !200
  %45 = getelementptr inbounds nuw %"class.igl::opengl::ViewerCore", ptr %9, i32 0, i32 7
  %46 = load i32, ptr %45, align 4, !tbaa !201
  call void %42(i32 noundef 36161, i32 noundef 32856, i32 noundef %44, i32 noundef %46)
  %47 = load ptr, ptr @glad_glFramebufferRenderbuffer, align 8, !tbaa !89
  %48 = getelementptr inbounds nuw %"class.igl::opengl::ViewerCore", ptr %9, i32 0, i32 10
  %49 = load i32, ptr %48, align 16, !tbaa !199
  call void %47(i32 noundef 36160, i32 noundef 36064, i32 noundef 36161, i32 noundef %49)
  call void @llvm.lifetime.start.p0(i64 4, ptr %8) #20
  %50 = load ptr, ptr @glad_glCheckFramebufferStatus, align 8, !tbaa !89
  %51 = call i32 %50(i32 noundef 36160)
  store i32 %51, ptr %8, align 4, !tbaa !136
  %52 = load i32, ptr %8, align 4, !tbaa !136
  switch i32 %52, label %53 [
    i32 36053, label %56
  ]

53:                                               ; preds = %1
  %54 = load i32, ptr %8, align 4, !tbaa !136
  %55 = call i32 (ptr, ...) @printf(ptr noundef @.str.24, i32 noundef %54)
  br label %56

56:                                               ; preds = %53, %1
  %57 = load ptr, ptr @glad_glBindRenderbuffer, align 8, !tbaa !89
  call void %57(i32 noundef 36161, i32 noundef 0)
  %58 = load ptr, ptr @glad_glBindFramebuffer, align 8, !tbaa !89
  call void %58(i32 noundef 36160, i32 noundef 0)
  call void @llvm.lifetime.end.p0(i64 4, ptr %8) #20
  ret void
}