; Function Attrs: mustprogress uwtable
define dso_local void @_ZN3igl6opengl10ViewerCore23generate_shadow_buffersEv(ptr noundef nonnull align 16 dereferenceable(544) %0) local_unnamed_addr #3 align 2 {
  %2 = alloca %"class.Eigen::Matrix.3", align 16
  %3 = load ptr, ptr @glad_glDeleteTextures, align 8, !tbaa !58
  %4 = getelementptr inbounds nuw i8, ptr %0, i64 56
  tail call void %3(i32 noundef 1, ptr noundef nonnull %4)
  %5 = load ptr, ptr @glad_glGenTextures, align 8, !tbaa !58
  tail call void %5(i32 noundef 1, ptr noundef nonnull %4)
  %6 = load ptr, ptr @glad_glBindTexture, align 8, !tbaa !58
  %7 = load i32, ptr %4, align 8, !tbaa !119
  tail call void %6(i32 noundef 3553, i32 noundef %7)
  %8 = load ptr, ptr @glad_glTexImage2D, align 8, !tbaa !58
  %9 = getelementptr inbounds nuw i8, ptr %0, i64 48
  %10 = load i32, ptr %9, align 16, !tbaa !140
  %11 = getelementptr inbounds nuw i8, ptr %0, i64 52
  %12 = load i32, ptr %11, align 4, !tbaa !141
  tail call void %8(i32 noundef 3553, i32 noundef 0, i32 noundef 6402, i32 noundef %10, i32 noundef %12, i32 noundef 0, i32 noundef 6402, i32 noundef 5126, ptr noundef null)
  %13 = load ptr, ptr @glad_glTexParameteri, align 8, !tbaa !58
  tail call void %13(i32 noundef 3553, i32 noundef 10241, i32 noundef 9728)
  %14 = load ptr, ptr @glad_glTexParameteri, align 8, !tbaa !58
  tail call void %14(i32 noundef 3553, i32 noundef 10240, i32 noundef 9728)
  %15 = load ptr, ptr @glad_glTexParameteri, align 8, !tbaa !58
  tail call void %15(i32 noundef 3553, i32 noundef 10242, i32 noundef 33069)
  %16 = load ptr, ptr @glad_glTexParameteri, align 8, !tbaa !58
  tail call void %16(i32 noundef 3553, i32 noundef 10243, i32 noundef 33069)
  %17 = load ptr, ptr @glad_glTexParameterfv, align 8, !tbaa !58
  call void @llvm.lifetime.start.p0(i64 16, ptr nonnull %2) #20
  store float 1.000000e+00, ptr %2, align 16, !tbaa !55
  %18 = getelementptr inbounds nuw i8, ptr %2, i64 4
  store float 1.000000e+00, ptr %18, align 4, !tbaa !55
  %19 = getelementptr inbounds nuw i8, ptr %2, i64 8
  store float 1.000000e+00, ptr %19, align 8, !tbaa !55
  %20 = getelementptr inbounds nuw i8, ptr %2, i64 12
  store float 1.000000e+00, ptr %20, align 4, !tbaa !55
  call void %17(i32 noundef 3553, i32 noundef 4100, ptr noundef nonnull %2)
  call void @llvm.lifetime.end.p0(i64 16, ptr nonnull %2) #20
  %21 = load ptr, ptr @glad_glBindTexture, align 8, !tbaa !58
  call void %21(i32 noundef 3553, i32 noundef 0)
  %22 = load ptr, ptr @glad_glGenFramebuffers, align 8, !tbaa !58
  %23 = getelementptr inbounds nuw i8, ptr %0, i64 60
  call void %22(i32 noundef 1, ptr noundef nonnull %23)
  %24 = load ptr, ptr @glad_glBindFramebuffer, align 8, !tbaa !58
  %25 = load i32, ptr %23, align 4, !tbaa !138
  call void %24(i32 noundef 36160, i32 noundef %25)
  %26 = load ptr, ptr @glad_glFramebufferTexture2D, align 8, !tbaa !58
  %27 = load i32, ptr %4, align 8, !tbaa !119
  call void %26(i32 noundef 36160, i32 noundef 36096, i32 noundef 3553, i32 noundef %27, i32 noundef 0)
  %28 = load ptr, ptr @glad_glGenRenderbuffers, align 8, !tbaa !58
  %29 = getelementptr inbounds nuw i8, ptr %0, i64 64
  call void %28(i32 noundef 1, ptr noundef nonnull %29)
  %30 = load ptr, ptr @glad_glBindRenderbuffer, align 8, !tbaa !58
  %31 = load i32, ptr %29, align 16, !tbaa !139
  call void %30(i32 noundef 36161, i32 noundef %31)
  %32 = load ptr, ptr @glad_glRenderbufferStorage, align 8, !tbaa !58
  %33 = load i32, ptr %9, align 16, !tbaa !140
  %34 = load i32, ptr %11, align 4, !tbaa !141
  call void %32(i32 noundef 36161, i32 noundef 32856, i32 noundef %33, i32 noundef %34)
  %35 = load ptr, ptr @glad_glFramebufferRenderbuffer, align 8, !tbaa !58
  %36 = load i32, ptr %29, align 16, !tbaa !139
  call void %35(i32 noundef 36160, i32 noundef 36064, i32 noundef 36161, i32 noundef %36)
  %37 = load ptr, ptr @glad_glCheckFramebufferStatus, align 8, !tbaa !58
  %38 = call i32 %37(i32 noundef 36160)
  %cond = icmp eq i32 %38, 36053
  br i1 %cond, label %41, label %39

39:                                               ; preds = %1
  %40 = call i32 (ptr, ...) @printf(ptr noundef nonnull dereferenceable(1) @.str.24, i32 noundef %38)
  br label %41

41:                                               ; preds = %1, %39
  %42 = load ptr, ptr @glad_glBindRenderbuffer, align 8, !tbaa !58
  call void %42(i32 noundef 36161, i32 noundef 0)
  %43 = load ptr, ptr @glad_glBindFramebuffer, align 8, !tbaa !58
  call void %43(i32 noundef 36160, i32 noundef 0)
  ret void
}